; Function Attrs: nounwind uwtable
define ptr @l___private_Lean_Data_FuzzyMatching_0__Lean_FuzzyMatching_fuzzyMatchCore_matchResult___lambda__2(ptr noundef %0, ptr noundef %1, ptr readnone captures(none) %2) local_unnamed_addr #0 {
  %4 = load ptr, ptr @l___private_Lean_Data_FuzzyMatching_0__Lean_FuzzyMatching_fuzzyMatchCore_matchResult___lambda__2___closed__1, align 8, !tbaa !11
  %5 = ptrtoint ptr %0 to i64
  %6 = and i64 %5, 1
  %.not.i14 = icmp eq i64 %6, 0
  br i1 %.not.i14, label %10, label %7

7:                                                ; preds = %3
  %8 = lshr i64 %5, 1
  %9 = trunc i64 %8 to i32
  br label %lean_obj_tag.exit

10:                                               ; preds = %3
  %11 = getelementptr i8, ptr %0, i64 4
  %.val.i = load i32, ptr %11, align 4
  %12 = lshr i32 %.val.i, 24
  br label %lean_obj_tag.exit

lean_obj_tag.exit:                                ; preds = %7, %10
  %.0.i = phi i32 [ %9, %7 ], [ %12, %10 ]
  %13 = icmp eq i32 %.0.i, 0
  br i1 %13, label %lean_dec.exit, label %14

14:                                               ; preds = %lean_obj_tag.exit
  %15 = getelementptr inbounds nuw i8, ptr %0, i64 8
  %16 = load ptr, ptr %15, align 8, !tbaa !11
  %17 = ptrtoint ptr %1 to i64
  %18 = and i64 %17, 1
  %.not.i15 = icmp eq i64 %18, 0
  br i1 %.not.i15, label %38, label %19, !prof !4

19:                                               ; preds = %14
  %20 = ptrtoint ptr %16 to i64
  %21 = and i64 %20, 1
  %.not7.i = icmp eq i64 %21, 0
  br i1 %.not7.i, label %lean_int_add.exit.thread19, label %23, !prof !4

lean_int_add.exit.thread19:                       ; preds = %19
  %22 = tail call ptr @lean_int_big_add(ptr noundef %1, ptr noundef %16) #7
  br label %lean_dec.exit

23:                                               ; preds = %19
  %24 = shl i64 %17, 31
  %25 = ashr i64 %24, 32
  %26 = shl i64 %20, 31
  %27 = ashr i64 %26, 32
  %28 = add nsw i64 %27, %25
  %29 = add nsw i64 %28, 2147483648
  %30 = icmp ult i64 %29, 4294967296
  br i1 %30, label %31, label %36, !prof !10

31:                                               ; preds = %23
  %32 = shl nsw i64 %28, 1
  %33 = and i64 %32, 8589934590
  %34 = or disjoint i64 %33, 1
  %35 = inttoptr i64 %34 to ptr
  br label %lean_dec.exit

36:                                               ; preds = %23
  %37 = tail call ptr @lean_big_int64_to_int(i64 noundef range(i64 -4611686016279904256, 4611686018427387905) %28) #7
  br label %lean_dec.exit

38:                                               ; preds = %14
  %39 = tail call ptr @lean_int_big_add(ptr noundef %1, ptr noundef %16) #7
  %40 = load i32, ptr %1, align 4, !tbaa !5
  %41 = icmp sgt i32 %40, 1
  br i1 %41, label %42, label %44, !prof !10

42:                                               ; preds = %38
  %43 = add nsw i32 %40, -1
  store i32 %43, ptr %1, align 4, !tbaa !5
  br label %lean_dec.exit

44:                                               ; preds = %38
  %.not.i = icmp eq i32 %40, 0
  br i1 %.not.i, label %lean_dec.exit, label %45

45:                                               ; preds = %44
  tail call void @lean_dec_ref_cold(ptr noundef nonnull %1) #7
  br label %lean_dec.exit

lean_dec.exit:                                    ; preds = %lean_int_add.exit.thread19, %42, %44, %45, %31, %36, %lean_obj_tag.exit
  %.0.i1618.sink = phi ptr [ %1, %lean_obj_tag.exit ], [ %22, %lean_int_add.exit.thread19 ], [ %39, %42 ], [ %39, %44 ], [ %39, %45 ], [ %37, %36 ], [ %35, %31 ]
  %46 = tail call ptr @lean_apply_2(ptr noundef %4, ptr noundef %.0.i1618.sink, ptr noundef nonnull inttoptr (i64 1 to ptr)) #7
  ret ptr %46
}